; Function Attrs: nounwind uwtable
define ptr @lv_fragment_get_parent(ptr noundef readonly %0) local_unnamed_addr #0 {
  %.not = icmp eq ptr %0, null
  br i1 %.not, label %.preheader, label %2

.preheader:                                       ; preds = %1, %.preheader
  br label %.preheader

2:                                                ; preds = %1
  %3 = getelementptr inbounds nuw i8, ptr %0, i64 8
  %4 = load ptr, ptr %3, align 8, !tbaa !14
  %.not4 = icmp eq ptr %4, null
  br i1 %.not4, label %.preheader5, label %5

.preheader5:                                      ; preds = %2, %.preheader5
  br label %.preheader5

5:                                                ; preds = %2
  %6 = getelementptr inbounds nuw i8, ptr %4, i64 8
  %7 = load ptr, ptr %6, align 8, !tbaa !15
  %8 = tail call ptr @lv_fragment_manager_get_parent_fragment(ptr noundef %7) #4
  ret ptr %8
}